; Function Attrs: mustprogress uwtable
define hidden void @_ZN4ncnn13Convolution1DC2Ev(ptr noundef nonnull align 8 dereferenceable(472) %0) unnamed_addr #0 align 2 personality ptr @__gxx_personality_v0 {
  tail call void @_ZN4ncnn5LayerC2Ev(ptr noundef nonnull align 8 dereferenceable(208) %0)
  store ptr getelementptr inbounds inrange(-16, 80) (i8, ptr @_ZTVN4ncnn13Convolution1DE, i64 16), ptr %0, align 8
  %2 = getelementptr inbounds nuw i8, ptr %0, i64 248
  %3 = getelementptr inbounds i8, ptr %0, i64 280
  %4 = getelementptr inbounds i8, ptr %0, i64 312
  store i64 0, ptr %4, align 8
  %5 = getelementptr inbounds nuw i8, ptr %0, i64 328
  %6 = getelementptr inbounds i8, ptr %0, i64 360
  %7 = getelementptr inbounds i8, ptr %0, i64 392
  %8 = getelementptr inbounds i8, ptr %0, i64 432
  %9 = getelementptr inbounds i8, ptr %0, i64 464
  store i64 0, ptr %9, align 8
  %10 = getelementptr inbounds nuw i8, ptr %0, i64 8
  tail call void @llvm.memset.p0.i64(ptr noundef nonnull align 8 dereferenceable(28) %2, i8 0, i64 28, i1 false)
  tail call void @llvm.memset.p0.i64(ptr noundef nonnull align 8 dereferenceable(28) %3, i8 0, i64 28, i1 false)
  tail call void @llvm.memset.p0.i64(ptr noundef nonnull align 8 dereferenceable(28) %5, i8 0, i64 28, i1 false)
  tail call void @llvm.memset.p0.i64(ptr noundef nonnull align 8 dereferenceable(28) %6, i8 0, i64 28, i1 false)
  tail call void @llvm.memset.p0.i64(ptr noundef nonnull align 8 dereferenceable(36) %7, i8 0, i64 36, i1 false)
  tail call void @llvm.memset.p0.i64(ptr noundef nonnull align 8 dereferenceable(28) %8, i8 0, i64 28, i1 false)
  store i8 1, ptr %10, align 8
  %11 = getelementptr inbounds nuw i8, ptr %0, i64 9
  store i8 0, ptr %11, align 1
  ret void
}